; ModuleID = '31/73.c'
source_filename = "31/73.c"
target datalayout = "e-m:e-p270:32:32-p271:32:32-p272:64:64-i64:64-f80:128-n8:16:32:64-S128"
target triple = "x86_64-pc-linux-gnu"

%struct.student = type { [50 x i8], %struct.student*, %struct.student* }

@.str = private unnamed_addr constant [4 x i8] c"end\00", align 1
@.str.1 = private unnamed_addr constant [4 x i8] c"%s\0A\00", align 1

; Function Attrs: noinline nounwind uwtable
define dso_local void @main() #0 {
  %1 = alloca i32, align 4
  %2 = alloca i32, align 4
  %3 = alloca %struct.student*, align 8
  %4 = alloca %struct.student*, align 8
  %5 = alloca %struct.student*, align 8
  store i32 0, i32* %1, align 4
  store i32 0, i32* %2, align 4
  %6 = call noalias i8* @malloc(i64 72) #4
  %7 = bitcast i8* %6 to %struct.student*
  store %struct.student* %7, %struct.student** %4, align 8
  store %struct.student* %7, %struct.student** %3, align 8
  br label %8

8:                                                ; preds = %17, %0
  %9 = load %struct.student*, %struct.student** %3, align 8
  %10 = getelementptr inbounds %struct.student, %struct.student* %9, i32 0, i32 0
  %11 = getelementptr inbounds [50 x i8], [50 x i8]* %10, i64 0, i64 0
  %12 = call i32 (i8*, ...) bitcast (i32 (...)* @gets to i32 (i8*, ...)*)(i8* %11)
  %13 = sext i32 %12 to i64
  %14 = inttoptr i64 %13 to i8*
  %15 = call i32 @strcmp(i8* %14, i8* getelementptr inbounds ([4 x i8], [4 x i8]* @.str, i64 0, i64 0)) #5
  %16 = icmp ne i32 %15, 0
  br i1 %16, label %17, label %28

17:                                               ; preds = %8
  %18 = load i32, i32* %2, align 4
  %19 = add nsw i32 %18, 1
  store i32 %19, i32* %2, align 4
  %20 = load %struct.student*, %struct.student** %3, align 8
  store %struct.student* %20, %struct.student** %5, align 8
  %21 = call noalias i8* @malloc(i64 72) #4
  %22 = bitcast i8* %21 to %struct.student*
  %23 = load %struct.student*, %struct.student** %3, align 8
  %24 = getelementptr inbounds %struct.student, %struct.student* %23, i32 0, i32 2
  store %struct.student* %22, %struct.student** %24, align 8
  store %struct.student* %22, %struct.student** %3, align 8
  %25 = load %struct.student*, %struct.student** %5, align 8
  %26 = load %struct.student*, %struct.student** %3, align 8
  %27 = getelementptr inbounds %struct.student, %struct.student* %26, i32 0, i32 1
  store %struct.student* %25, %struct.student** %27, align 8
  br label %8

28:                                               ; preds = %8
  br label %29

29:                                               ; preds = %34, %28
  %30 = load i32, i32* %1, align 4
  %31 = add nsw i32 %30, 1
  store i32 %31, i32* %1, align 4
  %32 = load i32, i32* %2, align 4
  %33 = icmp slt i32 %30, %32
  br i1 %33, label %34, label %42

34:                                               ; preds = %29
  %35 = load %struct.student*, %struct.student** %3, align 8
  %36 = getelementptr inbounds %struct.student, %struct.student* %35, i32 0, i32 1
  %37 = load %struct.student*, %struct.student** %36, align 8
  store %struct.student* %37, %struct.student** %3, align 8
  %38 = load %struct.student*, %struct.student** %3, align 8
  %39 = getelementptr inbounds %struct.student, %struct.student* %38, i32 0, i32 0
  %40 = getelementptr inbounds [50 x i8], [50 x i8]* %39, i64 0, i64 0
  %41 = call i32 (i8*, ...) @printf(i8* getelementptr inbounds ([4 x i8], [4 x i8]* @.str.1, i64 0, i64 0), i8* %40)
  br label %29

42:                                               ; preds = %29
  ret void
}

; Function Attrs: nounwind
declare dso_local noalias i8* @malloc(i64) #1

; Function Attrs: nounwind readonly
declare dso_local i32 @strcmp(i8*, i8*) #2

declare dso_local i32 @gets(...) #3

declare dso_local i32 @printf(i8*, ...) #3


!llvm.module.flags = !{!0}
!llvm.ident = !{!1}

!0 = !{i32 1, !"wchar_size", i32 4}
!1 = !{!"clang version 10.0.0-4ubuntu1 "}
