; ModuleID = 'source-C-CXX/30/73.c'
source_filename = "source-C-CXX/30/73.c"
target datalayout = "e-m:e-p270:32:32-p271:32:32-p272:64:64-i64:64-f80:128-n8:16:32:64-S128"
target triple = "x86_64-pc-linux-gnu"

%struct.student = type { [50 x i8], %struct.student*, %struct.student* }

@.str = private unnamed_addr constant [4 x i8] c"end\00", align 1

; Function Attrs: nounwind sspstrong uwtable
define dso_local void @main() local_unnamed_addr #0 {
  %1 = tail call noalias align 16 dereferenceable_or_null(72) i8* @malloc(i64 72) #5
  %2 = bitcast i8* %1 to %struct.student*
  %3 = getelementptr inbounds %struct.student, %struct.student* %2, i64 0, i32 0, i64 0
  %4 = tail call i32 (i8*, ...) bitcast (i32 (...)* @gets to i32 (i8*, ...)*)(i8* %3) #5
  %5 = sext i32 %4 to i64
  %6 = inttoptr i64 %5 to i8*
  %7 = tail call i32 @strcmp(i8* noundef nonnull dereferenceable(1) %6, i8* noundef nonnull dereferenceable(4) getelementptr inbounds ([4 x i8], [4 x i8]* @.str, i64 0, i64 0)) #6
  %8 = icmp eq i32 %7, 0
  br i1 %8, label %35, label %11

9:                                                ; preds = %11
  %10 = bitcast i8* %15 to %struct.student*
  br label %26

11:                                               ; preds = %0, %11
  %12 = phi i32 [ %14, %11 ], [ 0, %0 ]
  %13 = phi %struct.student* [ %16, %11 ], [ %2, %0 ]
  %14 = add nuw nsw i32 %12, 1
  %15 = tail call noalias align 16 dereferenceable_or_null(72) i8* @malloc(i64 72) #5
  %16 = bitcast i8* %15 to %struct.student*
  %17 = getelementptr inbounds %struct.student, %struct.student* %13, i64 0, i32 2
  %18 = bitcast %struct.student** %17 to i8**
  store i8* %15, i8** %18, align 8, !tbaa !5
  %19 = getelementptr inbounds %struct.student, %struct.student* %16, i64 0, i32 1
  store %struct.student* %13, %struct.student** %19, align 8, !tbaa !10
  %20 = getelementptr inbounds %struct.student, %struct.student* %16, i64 0, i32 0, i64 0
  %21 = tail call i32 (i8*, ...) bitcast (i32 (...)* @gets to i32 (i8*, ...)*)(i8* %20) #5
  %22 = sext i32 %21 to i64
  %23 = inttoptr i64 %22 to i8*
  %24 = tail call i32 @strcmp(i8* noundef nonnull dereferenceable(1) %23, i8* noundef nonnull dereferenceable(4) getelementptr inbounds ([4 x i8], [4 x i8]* @.str, i64 0, i64 0)) #6
  %25 = icmp eq i32 %24, 0
  br i1 %25, label %9, label %11, !llvm.loop !11

26:                                               ; preds = %9, %26
  %27 = phi i32 [ %29, %26 ], [ 0, %9 ]
  %28 = phi %struct.student* [ %31, %26 ], [ %10, %9 ]
  %29 = add nuw i32 %27, 1
  %30 = getelementptr inbounds %struct.student, %struct.student* %28, i64 0, i32 1
  %31 = load %struct.student*, %struct.student** %30, align 8, !tbaa !10
  %32 = getelementptr inbounds %struct.student, %struct.student* %31, i64 0, i32 0, i64 0
  %33 = tail call i32 @puts(i8* nonnull dereferenceable(1) %32)
  %34 = icmp eq i32 %27, %12
  br i1 %34, label %35, label %26, !llvm.loop !13

35:                                               ; preds = %26, %0
  ret void
}

; Function Attrs: inaccessiblememonly mustprogress nofree nounwind willreturn
declare noalias noundef align 16 i8* @malloc(i64 noundef) local_unnamed_addr #1

; Function Attrs: argmemonly mustprogress nofree nounwind readonly willreturn
declare i32 @strcmp(i8* nocapture, i8* nocapture) local_unnamed_addr #2

declare i32 @gets(...) local_unnamed_addr #3

; Function Attrs: nofree nounwind
declare noundef i32 @puts(i8* nocapture noundef readonly) local_unnamed_addr #4


!llvm.module.flags = !{!0, !1, !2, !3}
!llvm.ident = !{!4}

!0 = !{i32 1, !"wchar_size", i32 4}
!1 = !{i32 7, !"PIC Level", i32 2}
!2 = !{i32 7, !"PIE Level", i32 2}
!3 = !{i32 7, !"uwtable", i32 1}
!4 = !{!"clang version 13.0.0"}
!5 = !{!6, !9, i64 64}
!6 = !{!"student", !7, i64 0, !9, i64 56, !9, i64 64}
!7 = !{!"omnipotent char", !8, i64 0}
!8 = !{!"Simple C/C++ TBAA"}
!9 = !{!"any pointer", !7, i64 0}
!10 = !{!6, !9, i64 56}
!11 = distinct !{!11, !12}
!12 = !{!"llvm.loop.mustprogress"}
!13 = distinct !{!13, !12}
